target datalayout = "e-m:e-p270:32:32-p271:32:32-p272:64:64-i64:64-i128:128-f80:128-n8:16:32:64-S128"
target triple = "x86_64-pc-linux-gnu"

%struct.ggml_backend_cpu_device_context = type { %"class.std::__cxx11::basic_string" }
%"class.std::__cxx11::basic_string" = type { %"struct.std::__cxx11::basic_string<char>::_Alloc_hider", i64, %union.anon }
%"struct.std::__cxx11::basic_string<char>::_Alloc_hider" = type { ptr }
%union.anon = type { i64, [8 x i8] }
%struct.ggml_backend_device = type { %struct.ggml_backend_device_i, ptr, ptr }
%struct.ggml_backend_device_i = type { ptr, ptr, ptr, ptr, ptr, ptr, ptr, ptr, ptr, ptr, ptr, ptr, ptr, ptr, ptr }
%struct.ggml_backend_dev_caps = type { i8, i8, i8, i8 }
%struct.ggml_backend_dev_props = type { ptr, ptr, i64, i64, i32, %struct.ggml_backend_dev_caps }

@.str.1 = private unnamed_addr constant [4 x i8] c"CPU\00", align 1

; Function Attrs: mustprogress nounwind uwtable
define available_externally noundef ptr @_ZNKSt7__cxx1112basic_stringIcSt11char_traitsIcESaIcEE7_M_dataEv(ptr noundef nonnull align 8 dereferenceable(32) %0) #4 align 2 {
  %2 = alloca ptr, align 8
  store ptr %0, ptr %2, align 8, !tbaa !148
  %3 = load ptr, ptr %2, align 8
  %4 = getelementptr inbounds nuw %"class.std::__cxx11::basic_string", ptr %3, i32 0, i32 0
  %5 = getelementptr inbounds nuw %"struct.std::__cxx11::basic_string<char>::_Alloc_hider", ptr %4, i32 0, i32 0
  %6 = load ptr, ptr %5, align 8, !tbaa !158
  ret ptr %6
}

; Function Attrs: mustprogress nounwind uwtable
define available_externally noundef ptr @_ZNKSt7__cxx1112basic_stringIcSt11char_traitsIcESaIcEE5c_strEv(ptr noundef nonnull align 8 dereferenceable(32) %0) #4 align 2 {
  %2 = alloca ptr, align 8
  store ptr %0, ptr %2, align 8, !tbaa !148
  %3 = load ptr, ptr %2, align 8
  %4 = call noundef ptr @_ZNKSt7__cxx1112basic_stringIcSt11char_traitsIcESaIcEE7_M_dataEv(ptr noundef nonnull align 8 dereferenceable(32) %3)
  ret ptr %4
}

; Function Attrs: mustprogress nounwind uwtable
define internal void @_ZL34ggml_backend_cpu_device_get_memoryP19ggml_backend_devicePmS1_(ptr noundef %0, ptr noundef %1, ptr noundef %2) #4 {
  %4 = alloca ptr, align 8
  %5 = alloca ptr, align 8
  %6 = alloca ptr, align 8
  store ptr %0, ptr %4, align 8, !tbaa !105
  store ptr %1, ptr %5, align 8, !tbaa !36
  store ptr %2, ptr %6, align 8, !tbaa !36
  %7 = load ptr, ptr %5, align 8, !tbaa !36
  store i64 0, ptr %7, align 8, !tbaa !30
  %8 = load ptr, ptr %6, align 8, !tbaa !36
  store i64 0, ptr %8, align 8, !tbaa !30
  ret void
}

; Function Attrs: mustprogress nounwind uwtable
define internal noundef i32 @_ZL32ggml_backend_cpu_device_get_typeP19ggml_backend_device(ptr noundef %0) #4 {
  %2 = alloca ptr, align 8
  store ptr %0, ptr %2, align 8, !tbaa !105
  ret i32 0
}

; Function Attrs: mustprogress nounwind uwtable
define internal noundef ptr @_ZL39ggml_backend_cpu_device_get_descriptionP19ggml_backend_device(ptr noundef %0) #4 {
  %2 = alloca ptr, align 8
  %3 = alloca ptr, align 8
  store ptr %0, ptr %2, align 8, !tbaa !105
  call void @llvm.lifetime.start.p0(i64 8, ptr %3) #1
  %4 = load ptr, ptr %2, align 8, !tbaa !105
  %5 = getelementptr inbounds nuw %struct.ggml_backend_device, ptr %4, i32 0, i32 2
  %6 = load ptr, ptr %5, align 8, !tbaa !95
  store ptr %6, ptr %3, align 8, !tbaa !96
  %7 = load ptr, ptr %3, align 8, !tbaa !96
  %8 = getelementptr inbounds nuw %struct.ggml_backend_cpu_device_context, ptr %7, i32 0, i32 0
  %9 = call noundef ptr @_ZNKSt7__cxx1112basic_stringIcSt11char_traitsIcESaIcEE5c_strEv(ptr noundef nonnull align 8 dereferenceable(32) %8) #1
  call void @llvm.lifetime.end.p0(i64 8, ptr %3) #1
  ret ptr %9
}

; Function Attrs: mustprogress nounwind uwtable
define internal noundef ptr @_ZL32ggml_backend_cpu_device_get_nameP19ggml_backend_device(ptr noundef %0) #4 {
  %2 = alloca ptr, align 8
  store ptr %0, ptr %2, align 8, !tbaa !105
  ret ptr @.str.1
}

; Function Attrs: mustprogress nounwind uwtable
define internal void @_ZL33ggml_backend_cpu_device_get_propsP19ggml_backend_deviceP22ggml_backend_dev_props(ptr noundef %0, ptr noundef %1) #4 {
  %3 = alloca ptr, align 8
  %4 = alloca ptr, align 8
  %5 = alloca %struct.ggml_backend_dev_caps, align 1
  store ptr %0, ptr %3, align 8, !tbaa !105
  store ptr %1, ptr %4, align 8, !tbaa !106
  %6 = load ptr, ptr %3, align 8, !tbaa !105
  %7 = call noundef ptr @_ZL32ggml_backend_cpu_device_get_nameP19ggml_backend_device(ptr noundef %6)
  %8 = load ptr, ptr %4, align 8, !tbaa !106
  %9 = getelementptr inbounds nuw %struct.ggml_backend_dev_props, ptr %8, i32 0, i32 0
  store ptr %7, ptr %9, align 8, !tbaa !108
  %10 = load ptr, ptr %3, align 8, !tbaa !105
  %11 = call noundef ptr @_ZL39ggml_backend_cpu_device_get_descriptionP19ggml_backend_device(ptr noundef %10)
  %12 = load ptr, ptr %4, align 8, !tbaa !106
  %13 = getelementptr inbounds nuw %struct.ggml_backend_dev_props, ptr %12, i32 0, i32 1
  store ptr %11, ptr %13, align 8, !tbaa !113
  %14 = load ptr, ptr %3, align 8, !tbaa !105
  %15 = call noundef i32 @_ZL32ggml_backend_cpu_device_get_typeP19ggml_backend_device(ptr noundef %14)
  %16 = load ptr, ptr %4, align 8, !tbaa !106
  %17 = getelementptr inbounds nuw %struct.ggml_backend_dev_props, ptr %16, i32 0, i32 4
  store i32 %15, ptr %17, align 8, !tbaa !114
  %18 = load ptr, ptr %3, align 8, !tbaa !105
  %19 = load ptr, ptr %4, align 8, !tbaa !106
  %20 = getelementptr inbounds nuw %struct.ggml_backend_dev_props, ptr %19, i32 0, i32 2
  %21 = load ptr, ptr %4, align 8, !tbaa !106
  %22 = getelementptr inbounds nuw %struct.ggml_backend_dev_props, ptr %21, i32 0, i32 3
  call void @_ZL34ggml_backend_cpu_device_get_memoryP19ggml_backend_devicePmS1_(ptr noundef %18, ptr noundef %20, ptr noundef %22)
  call void @llvm.lifetime.start.p0(i64 4, ptr %5) #1
  %23 = getelementptr inbounds nuw %struct.ggml_backend_dev_caps, ptr %5, i32 0, i32 0
  store i8 0, ptr %23, align 1, !tbaa !115
  %24 = getelementptr inbounds nuw %struct.ggml_backend_dev_caps, ptr %5, i32 0, i32 1
  store i8 0, ptr %24, align 1, !tbaa !116
  %25 = getelementptr inbounds nuw %struct.ggml_backend_dev_caps, ptr %5, i32 0, i32 2
  store i8 1, ptr %25, align 1, !tbaa !117
  %26 = getelementptr inbounds nuw %struct.ggml_backend_dev_caps, ptr %5, i32 0, i32 3
  store i8 0, ptr %26, align 1, !tbaa !118
  %27 = load ptr, ptr %4, align 8, !tbaa !106
  %28 = getelementptr inbounds nuw %struct.ggml_backend_dev_props, ptr %27, i32 0, i32 5
  call void @llvm.memcpy.p0.p0.i64(ptr align 4 %28, ptr align 1 %5, i64 4, i1 false), !tbaa.struct !119
  call void @llvm.lifetime.end.p0(i64 4, ptr %5) #1
  ret void
}