; Function Attrs: mustprogress nofree norecurse nosync nounwind willreturn memory(read, argmem: readwrite, inaccessiblemem: none) uwtable
define internal void @_ZL33ggml_backend_cpu_device_get_propsP19ggml_backend_deviceP22ggml_backend_dev_props(ptr noundef readonly captures(none) %0, ptr noundef writeonly captures(none) initializes((0, 40)) %1) #17 {
  store ptr @.str.1, ptr %1, align 8, !tbaa !75
  %3 = getelementptr inbounds nuw i8, ptr %0, i64 128
  %4 = load ptr, ptr %3, align 8, !tbaa !64
  %5 = load ptr, ptr %4, align 8, !tbaa !73
  %6 = getelementptr inbounds nuw i8, ptr %1, i64 8
  store ptr %5, ptr %6, align 8, !tbaa !80
  %7 = getelementptr inbounds nuw i8, ptr %1, i64 16
  %.sroa.5.0..sroa_idx = getelementptr inbounds nuw i8, ptr %1, i64 38
  tail call void @llvm.memset.p0.i64(ptr noundef nonnull align 8 dereferenceable(22) %7, i8 0, i64 22, i1 false)
  store i8 1, ptr %.sroa.5.0..sroa_idx, align 2, !tbaa !81
  %.sroa.6.0..sroa_idx = getelementptr inbounds nuw i8, ptr %1, i64 39
  store i8 0, ptr %.sroa.6.0..sroa_idx, align 1, !tbaa !81
  ret void
}